GAS LISTING /tmp/cclWdqgl.s 			page 1


   1              		.file	"farm.c"
   2              		.text
   3              	.Ltext0:
   4              		.globl	start_farm
   6              	start_farm:
   7              	.LFB0:
   8              		.file 1 "farm.c"
   1:farm.c        **** /* This function marks the start of the farm */
   2:farm.c        **** int start_farm()
   3:farm.c        **** {
   9              		.loc 1 3 0
  10              		.cfi_startproc
  11 0000 55       		pushq	%rbp
  12              		.cfi_def_cfa_offset 16
  13              		.cfi_offset 6, -16
  14 0001 4889E5   		movq	%rsp, %rbp
  15              		.cfi_def_cfa_register 6
   4:farm.c        ****     return 1;
  16              		.loc 1 4 0
  17 0004 B8010000 		movl	$1, %eax
  17      00
   5:farm.c        **** }
  18              		.loc 1 5 0
  19 0009 5D       		popq	%rbp
  20              		.cfi_def_cfa 7, 8
  21 000a C3       		ret
  22              		.cfi_endproc
  23              	.LFE0:
  25              		.globl	getval_142
  27              	getval_142:
  28              	.LFB1:
   6:farm.c        **** 
   7:farm.c        **** unsigned getval_142()
   8:farm.c        **** {
  29              		.loc 1 8 0
  30              		.cfi_startproc
  31 000b 55       		pushq	%rbp
  32              		.cfi_def_cfa_offset 16
  33              		.cfi_offset 6, -16
  34 000c 4889E5   		movq	%rsp, %rbp
  35              		.cfi_def_cfa_register 6
   9:farm.c        ****     return 2425387259U;
  36              		.loc 1 9 0
  37 000f B8FB7890 		movl	$-1869580037, %eax
  37      90
  10:farm.c        **** }
  38              		.loc 1 10 0
  39 0014 5D       		popq	%rbp
  40              		.cfi_def_cfa 7, 8
  41 0015 C3       		ret
  42              		.cfi_endproc
  43              	.LFE1:
  45              		.globl	addval_273
  47              	addval_273:
  48              	.LFB2:
  11:farm.c        **** 
  12:farm.c        **** unsigned addval_273(unsigned x)
GAS LISTING /tmp/cclWdqgl.s 			page 2


  13:farm.c        **** {
  49              		.loc 1 13 0
  50              		.cfi_startproc
  51 0016 55       		pushq	%rbp
  52              		.cfi_def_cfa_offset 16
  53              		.cfi_offset 6, -16
  54 0017 4889E5   		movq	%rsp, %rbp
  55              		.cfi_def_cfa_register 6
  56 001a 897DFC   		movl	%edi, -4(%rbp)
  14:farm.c        ****     return x + 3284633928U;
  57              		.loc 1 14 0
  58 001d 8B45FC   		movl	-4(%rbp), %eax
  59 0020 2DB87638 		subl	$1010333368, %eax
  59      3C
  15:farm.c        **** }
  60              		.loc 1 15 0
  61 0025 5D       		popq	%rbp
  62              		.cfi_def_cfa 7, 8
  63 0026 C3       		ret
  64              		.cfi_endproc
  65              	.LFE2:
  67              		.globl	addval_219
  69              	addval_219:
  70              	.LFB3:
  16:farm.c        **** 
  17:farm.c        **** unsigned addval_219(unsigned x)
  18:farm.c        **** {
  71              		.loc 1 18 0
  72              		.cfi_startproc
  73 0027 55       		pushq	%rbp
  74              		.cfi_def_cfa_offset 16
  75              		.cfi_offset 6, -16
  76 0028 4889E5   		movq	%rsp, %rbp
  77              		.cfi_def_cfa_register 6
  78 002b 897DFC   		movl	%edi, -4(%rbp)
  19:farm.c        ****     return x + 2421715793U;
  79              		.loc 1 19 0
  80 002e 8B45FC   		movl	-4(%rbp), %eax
  81 0031 2DAF8CA7 		subl	$1873251503, %eax
  81      6F
  20:farm.c        **** }
  82              		.loc 1 20 0
  83 0036 5D       		popq	%rbp
  84              		.cfi_def_cfa 7, 8
  85 0037 C3       		ret
  86              		.cfi_endproc
  87              	.LFE3:
  89              		.globl	setval_237
  91              	setval_237:
  92              	.LFB4:
  21:farm.c        **** 
  22:farm.c        **** void setval_237(unsigned *p)
  23:farm.c        **** {
  93              		.loc 1 23 0
  94              		.cfi_startproc
  95 0038 55       		pushq	%rbp
  96              		.cfi_def_cfa_offset 16
GAS LISTING /tmp/cclWdqgl.s 			page 3


  97              		.cfi_offset 6, -16
  98 0039 4889E5   		movq	%rsp, %rbp
  99              		.cfi_def_cfa_register 6
 100 003c 48897DF8 		movq	%rdi, -8(%rbp)
  24:farm.c        ****     *p = 3351742792U;
 101              		.loc 1 24 0
 102 0040 488B45F8 		movq	-8(%rbp), %rax
 103 0044 C7004889 		movl	$-943224504, (%rax)
 103      C7C7
  25:farm.c        **** }
 104              		.loc 1 25 0
 105 004a 90       		nop
 106 004b 5D       		popq	%rbp
 107              		.cfi_def_cfa 7, 8
 108 004c C3       		ret
 109              		.cfi_endproc
 110              	.LFE4:
 112              		.globl	setval_424
 114              	setval_424:
 115              	.LFB5:
  26:farm.c        **** 
  27:farm.c        **** void setval_424(unsigned *p)
  28:farm.c        **** {
 116              		.loc 1 28 0
 117              		.cfi_startproc
 118 004d 55       		pushq	%rbp
 119              		.cfi_def_cfa_offset 16
 120              		.cfi_offset 6, -16
 121 004e 4889E5   		movq	%rsp, %rbp
 122              		.cfi_def_cfa_register 6
 123 0051 48897DF8 		movq	%rdi, -8(%rbp)
  29:farm.c        ****     *p = 2455290452U;
 124              		.loc 1 29 0
 125 0055 488B45F8 		movq	-8(%rbp), %rax
 126 0059 C70054C2 		movl	$-1839676844, (%rax)
 126      5892
  30:farm.c        **** }
 127              		.loc 1 30 0
 128 005f 90       		nop
 129 0060 5D       		popq	%rbp
 130              		.cfi_def_cfa 7, 8
 131 0061 C3       		ret
 132              		.cfi_endproc
 133              	.LFE5:
 135              		.globl	setval_470
 137              	setval_470:
 138              	.LFB6:
  31:farm.c        **** 
  32:farm.c        **** void setval_470(unsigned *p)
  33:farm.c        **** {
 139              		.loc 1 33 0
 140              		.cfi_startproc
 141 0062 55       		pushq	%rbp
 142              		.cfi_def_cfa_offset 16
 143              		.cfi_offset 6, -16
 144 0063 4889E5   		movq	%rsp, %rbp
 145              		.cfi_def_cfa_register 6
GAS LISTING /tmp/cclWdqgl.s 			page 4


 146 0066 48897DF8 		movq	%rdi, -8(%rbp)
  34:farm.c        ****     *p = 3347925091U;
 147              		.loc 1 34 0
 148 006a 488B45F8 		movq	-8(%rbp), %rax
 149 006e C7006348 		movl	$-947042205, (%rax)
 149      8DC7
  35:farm.c        **** }
 150              		.loc 1 35 0
 151 0074 90       		nop
 152 0075 5D       		popq	%rbp
 153              		.cfi_def_cfa 7, 8
 154 0076 C3       		ret
 155              		.cfi_endproc
 156              	.LFE6:
 158              		.globl	setval_426
 160              	setval_426:
 161              	.LFB7:
  36:farm.c        **** 
  37:farm.c        **** void setval_426(unsigned *p)
  38:farm.c        **** {
 162              		.loc 1 38 0
 163              		.cfi_startproc
 164 0077 55       		pushq	%rbp
 165              		.cfi_def_cfa_offset 16
 166              		.cfi_offset 6, -16
 167 0078 4889E5   		movq	%rsp, %rbp
 168              		.cfi_def_cfa_register 6
 169 007b 48897DF8 		movq	%rdi, -8(%rbp)
  39:farm.c        ****     *p = 2428995912U;
 170              		.loc 1 39 0
 171 007f 488B45F8 		movq	-8(%rbp), %rax
 172 0083 C7004889 		movl	$-1865971384, (%rax)
 172      C790
  40:farm.c        **** }
 173              		.loc 1 40 0
 174 0089 90       		nop
 175 008a 5D       		popq	%rbp
 176              		.cfi_def_cfa 7, 8
 177 008b C3       		ret
 178              		.cfi_endproc
 179              	.LFE7:
 181              		.globl	getval_280
 183              	getval_280:
 184              	.LFB8:
  41:farm.c        **** 
  42:farm.c        **** unsigned getval_280()
  43:farm.c        **** {
 185              		.loc 1 43 0
 186              		.cfi_startproc
 187 008c 55       		pushq	%rbp
 188              		.cfi_def_cfa_offset 16
 189              		.cfi_offset 6, -16
 190 008d 4889E5   		movq	%rsp, %rbp
 191              		.cfi_def_cfa_register 6
  44:farm.c        ****     return 3281016873U;
 192              		.loc 1 44 0
 193 0090 B8295890 		movl	$-1013950423, %eax
GAS LISTING /tmp/cclWdqgl.s 			page 5


 193      C3
  45:farm.c        **** }
 194              		.loc 1 45 0
 195 0095 5D       		popq	%rbp
 196              		.cfi_def_cfa 7, 8
 197 0096 C3       		ret
 198              		.cfi_endproc
 199              	.LFE8:
 201              		.globl	mid_farm
 203              	mid_farm:
 204              	.LFB9:
  46:farm.c        **** 
  47:farm.c        **** /* This function marks the middle of the farm */
  48:farm.c        **** int mid_farm()
  49:farm.c        **** {
 205              		.loc 1 49 0
 206              		.cfi_startproc
 207 0097 55       		pushq	%rbp
 208              		.cfi_def_cfa_offset 16
 209              		.cfi_offset 6, -16
 210 0098 4889E5   		movq	%rsp, %rbp
 211              		.cfi_def_cfa_register 6
  50:farm.c        ****     return 1;
 212              		.loc 1 50 0
 213 009b B8010000 		movl	$1, %eax
 213      00
  51:farm.c        **** }
 214              		.loc 1 51 0
 215 00a0 5D       		popq	%rbp
 216              		.cfi_def_cfa 7, 8
 217 00a1 C3       		ret
 218              		.cfi_endproc
 219              	.LFE9:
 221              		.globl	add_xy
 223              	add_xy:
 224              	.LFB10:
  52:farm.c        **** 
  53:farm.c        **** /* Add two arguments */
  54:farm.c        **** long add_xy(long x, long y)
  55:farm.c        **** {
 225              		.loc 1 55 0
 226              		.cfi_startproc
 227 00a2 55       		pushq	%rbp
 228              		.cfi_def_cfa_offset 16
 229              		.cfi_offset 6, -16
 230 00a3 4889E5   		movq	%rsp, %rbp
 231              		.cfi_def_cfa_register 6
 232 00a6 48897DF8 		movq	%rdi, -8(%rbp)
 233 00aa 488975F0 		movq	%rsi, -16(%rbp)
  56:farm.c        ****     return x+y;
 234              		.loc 1 56 0
 235 00ae 488B55F8 		movq	-8(%rbp), %rdx
 236 00b2 488B45F0 		movq	-16(%rbp), %rax
 237 00b6 4801D0   		addq	%rdx, %rax
  57:farm.c        **** }
 238              		.loc 1 57 0
 239 00b9 5D       		popq	%rbp
GAS LISTING /tmp/cclWdqgl.s 			page 6


 240              		.cfi_def_cfa 7, 8
 241 00ba C3       		ret
 242              		.cfi_endproc
 243              	.LFE10:
 245              		.globl	getval_481
 247              	getval_481:
 248              	.LFB11:
  58:farm.c        **** 
  59:farm.c        **** unsigned getval_481()
  60:farm.c        **** {
 249              		.loc 1 60 0
 250              		.cfi_startproc
 251 00bb 55       		pushq	%rbp
 252              		.cfi_def_cfa_offset 16
 253              		.cfi_offset 6, -16
 254 00bc 4889E5   		movq	%rsp, %rbp
 255              		.cfi_def_cfa_register 6
  61:farm.c        ****     return 2428668252U;
 256              		.loc 1 61 0
 257 00bf B85C89C2 		movl	$-1866299044, %eax
 257      90
  62:farm.c        **** }
 258              		.loc 1 62 0
 259 00c4 5D       		popq	%rbp
 260              		.cfi_def_cfa 7, 8
 261 00c5 C3       		ret
 262              		.cfi_endproc
 263              	.LFE11:
 265              		.globl	setval_296
 267              	setval_296:
 268              	.LFB12:
  63:farm.c        **** 
  64:farm.c        **** void setval_296(unsigned *p)
  65:farm.c        **** {
 269              		.loc 1 65 0
 270              		.cfi_startproc
 271 00c6 55       		pushq	%rbp
 272              		.cfi_def_cfa_offset 16
 273              		.cfi_offset 6, -16
 274 00c7 4889E5   		movq	%rsp, %rbp
 275              		.cfi_def_cfa_register 6
 276 00ca 48897DF8 		movq	%rdi, -8(%rbp)
  66:farm.c        ****     *p = 2425409945U;
 277              		.loc 1 66 0
 278 00ce 488B45F8 		movq	-8(%rbp), %rax
 279 00d2 C70099D1 		movl	$-1869557351, (%rax)
 279      9090
  67:farm.c        **** }
 280              		.loc 1 67 0
 281 00d8 90       		nop
 282 00d9 5D       		popq	%rbp
 283              		.cfi_def_cfa 7, 8
 284 00da C3       		ret
 285              		.cfi_endproc
 286              	.LFE12:
 288              		.globl	addval_113
 290              	addval_113:
GAS LISTING /tmp/cclWdqgl.s 			page 7


 291              	.LFB13:
  68:farm.c        **** 
  69:farm.c        **** unsigned addval_113(unsigned x)
  70:farm.c        **** {
 292              		.loc 1 70 0
 293              		.cfi_startproc
 294 00db 55       		pushq	%rbp
 295              		.cfi_def_cfa_offset 16
 296              		.cfi_offset 6, -16
 297 00dc 4889E5   		movq	%rsp, %rbp
 298              		.cfi_def_cfa_register 6
 299 00df 897DFC   		movl	%edi, -4(%rbp)
  71:farm.c        ****     return x + 3380137609U;
 300              		.loc 1 71 0
 301 00e2 8B45FC   		movl	-4(%rbp), %eax
 302 00e5 2D773187 		subl	$914829687, %eax
 302      36
  72:farm.c        **** }
 303              		.loc 1 72 0
 304 00ea 5D       		popq	%rbp
 305              		.cfi_def_cfa 7, 8
 306 00eb C3       		ret
 307              		.cfi_endproc
 308              	.LFE13:
 310              		.globl	addval_490
 312              	addval_490:
 313              	.LFB14:
  73:farm.c        **** 
  74:farm.c        **** unsigned addval_490(unsigned x)
  75:farm.c        **** {
 314              		.loc 1 75 0
 315              		.cfi_startproc
 316 00ec 55       		pushq	%rbp
 317              		.cfi_def_cfa_offset 16
 318              		.cfi_offset 6, -16
 319 00ed 4889E5   		movq	%rsp, %rbp
 320              		.cfi_def_cfa_register 6
 321 00f0 897DFC   		movl	%edi, -4(%rbp)
  76:farm.c        ****     return x + 3676361101U;
 322              		.loc 1 76 0
 323 00f3 8B45FC   		movl	-4(%rbp), %eax
 324 00f6 2D732EDF 		subl	$618606195, %eax
 324      24
  77:farm.c        **** }
 325              		.loc 1 77 0
 326 00fb 5D       		popq	%rbp
 327              		.cfi_def_cfa 7, 8
 328 00fc C3       		ret
 329              		.cfi_endproc
 330              	.LFE14:
 332              		.globl	getval_226
 334              	getval_226:
 335              	.LFB15:
  78:farm.c        **** 
  79:farm.c        **** unsigned getval_226()
  80:farm.c        **** {
 336              		.loc 1 80 0
GAS LISTING /tmp/cclWdqgl.s 			page 8


 337              		.cfi_startproc
 338 00fd 55       		pushq	%rbp
 339              		.cfi_def_cfa_offset 16
 340              		.cfi_offset 6, -16
 341 00fe 4889E5   		movq	%rsp, %rbp
 342              		.cfi_def_cfa_register 6
  81:farm.c        ****     return 3225997705U;
 343              		.loc 1 81 0
 344 0101 B889D148 		movl	$-1068969591, %eax
 344      C0
  82:farm.c        **** }
 345              		.loc 1 82 0
 346 0106 5D       		popq	%rbp
 347              		.cfi_def_cfa 7, 8
 348 0107 C3       		ret
 349              		.cfi_endproc
 350              	.LFE15:
 352              		.globl	setval_384
 354              	setval_384:
 355              	.LFB16:
  83:farm.c        **** 
  84:farm.c        **** void setval_384(unsigned *p)
  85:farm.c        **** {
 356              		.loc 1 85 0
 357              		.cfi_startproc
 358 0108 55       		pushq	%rbp
 359              		.cfi_def_cfa_offset 16
 360              		.cfi_offset 6, -16
 361 0109 4889E5   		movq	%rsp, %rbp
 362              		.cfi_def_cfa_register 6
 363 010c 48897DF8 		movq	%rdi, -8(%rbp)
  86:farm.c        ****     *p = 3229929857U;
 364              		.loc 1 86 0
 365 0110 488B45F8 		movq	-8(%rbp), %rax
 366 0114 C70081D1 		movl	$-1065037439, (%rax)
 366      84C0
  87:farm.c        **** }
 367              		.loc 1 87 0
 368 011a 90       		nop
 369 011b 5D       		popq	%rbp
 370              		.cfi_def_cfa 7, 8
 371 011c C3       		ret
 372              		.cfi_endproc
 373              	.LFE16:
 375              		.globl	addval_190
 377              	addval_190:
 378              	.LFB17:
  88:farm.c        **** 
  89:farm.c        **** unsigned addval_190(unsigned x)
  90:farm.c        **** {
 379              		.loc 1 90 0
 380              		.cfi_startproc
 381 011d 55       		pushq	%rbp
 382              		.cfi_def_cfa_offset 16
 383              		.cfi_offset 6, -16
 384 011e 4889E5   		movq	%rsp, %rbp
 385              		.cfi_def_cfa_register 6
GAS LISTING /tmp/cclWdqgl.s 			page 9


 386 0121 897DFC   		movl	%edi, -4(%rbp)
  91:farm.c        ****     return x + 3767093313U;
 387              		.loc 1 91 0
 388 0124 8B45FC   		movl	-4(%rbp), %eax
 389 0127 2DBFB776 		subl	$527873983, %eax
 389      1F
  92:farm.c        **** }
 390              		.loc 1 92 0
 391 012c 5D       		popq	%rbp
 392              		.cfi_def_cfa 7, 8
 393 012d C3       		ret
 394              		.cfi_endproc
 395              	.LFE17:
 397              		.globl	setval_276
 399              	setval_276:
 400              	.LFB18:
  93:farm.c        **** 
  94:farm.c        **** void setval_276(unsigned *p)
  95:farm.c        **** {
 401              		.loc 1 95 0
 402              		.cfi_startproc
 403 012e 55       		pushq	%rbp
 404              		.cfi_def_cfa_offset 16
 405              		.cfi_offset 6, -16
 406 012f 4889E5   		movq	%rsp, %rbp
 407              		.cfi_def_cfa_register 6
 408 0132 48897DF8 		movq	%rdi, -8(%rbp)
  96:farm.c        ****     *p = 3372794504U;
 409              		.loc 1 96 0
 410 0136 488B45F8 		movq	-8(%rbp), %rax
 411 013a C70088C2 		movl	$-922172792, (%rax)
 411      08C9
  97:farm.c        **** }
 412              		.loc 1 97 0
 413 0140 90       		nop
 414 0141 5D       		popq	%rbp
 415              		.cfi_def_cfa 7, 8
 416 0142 C3       		ret
 417              		.cfi_endproc
 418              	.LFE18:
 420              		.globl	addval_436
 422              	addval_436:
 423              	.LFB19:
  98:farm.c        **** 
  99:farm.c        **** unsigned addval_436(unsigned x)
 100:farm.c        **** {
 424              		.loc 1 100 0
 425              		.cfi_startproc
 426 0143 55       		pushq	%rbp
 427              		.cfi_def_cfa_offset 16
 428              		.cfi_offset 6, -16
 429 0144 4889E5   		movq	%rsp, %rbp
 430              		.cfi_def_cfa_register 6
 431 0147 897DFC   		movl	%edi, -4(%rbp)
 101:farm.c        ****     return x + 2425409161U;
 432              		.loc 1 101 0
 433 014a 8B45FC   		movl	-4(%rbp), %eax
GAS LISTING /tmp/cclWdqgl.s 			page 10


 434 014d 2D77316F 		subl	$1869558135, %eax
 434      6F
 102:farm.c        **** }
 435              		.loc 1 102 0
 436 0152 5D       		popq	%rbp
 437              		.cfi_def_cfa 7, 8
 438 0153 C3       		ret
 439              		.cfi_endproc
 440              	.LFE19:
 442              		.globl	getval_345
 444              	getval_345:
 445              	.LFB20:
 103:farm.c        **** 
 104:farm.c        **** unsigned getval_345()
 105:farm.c        **** {
 446              		.loc 1 105 0
 447              		.cfi_startproc
 448 0154 55       		pushq	%rbp
 449              		.cfi_def_cfa_offset 16
 450              		.cfi_offset 6, -16
 451 0155 4889E5   		movq	%rsp, %rbp
 452              		.cfi_def_cfa_register 6
 106:farm.c        ****     return 3252717896U;
 453              		.loc 1 106 0
 454 0158 B84889E0 		movl	$-1042249400, %eax
 454      C1
 107:farm.c        **** }
 455              		.loc 1 107 0
 456 015d 5D       		popq	%rbp
 457              		.cfi_def_cfa 7, 8
 458 015e C3       		ret
 459              		.cfi_endproc
 460              	.LFE20:
 462              		.globl	addval_479
 464              	addval_479:
 465              	.LFB21:
 108:farm.c        **** 
 109:farm.c        **** unsigned addval_479(unsigned x)
 110:farm.c        **** {
 466              		.loc 1 110 0
 467              		.cfi_startproc
 468 015f 55       		pushq	%rbp
 469              		.cfi_def_cfa_offset 16
 470              		.cfi_offset 6, -16
 471 0160 4889E5   		movq	%rsp, %rbp
 472              		.cfi_def_cfa_register 6
 473 0163 897DFC   		movl	%edi, -4(%rbp)
 111:farm.c        ****     return x + 3372270217U;
 474              		.loc 1 111 0
 475 0166 8B45FC   		movl	-4(%rbp), %eax
 476 0169 2D773DFF 		subl	$922697079, %eax
 476      36
 112:farm.c        **** }
 477              		.loc 1 112 0
 478 016e 5D       		popq	%rbp
 479              		.cfi_def_cfa 7, 8
 480 016f C3       		ret
GAS LISTING /tmp/cclWdqgl.s 			page 11


 481              		.cfi_endproc
 482              	.LFE21:
 484              		.globl	addval_187
 486              	addval_187:
 487              	.LFB22:
 113:farm.c        **** 
 114:farm.c        **** unsigned addval_187(unsigned x)
 115:farm.c        **** {
 488              		.loc 1 115 0
 489              		.cfi_startproc
 490 0170 55       		pushq	%rbp
 491              		.cfi_def_cfa_offset 16
 492              		.cfi_offset 6, -16
 493 0171 4889E5   		movq	%rsp, %rbp
 494              		.cfi_def_cfa_register 6
 495 0174 897DFC   		movl	%edi, -4(%rbp)
 116:farm.c        ****     return x + 3224948361U;
 496              		.loc 1 116 0
 497 0177 8B45FC   		movl	-4(%rbp), %eax
 498 017a 2D7731C7 		subl	$1070018935, %eax
 498      3F
 117:farm.c        **** }
 499              		.loc 1 117 0
 500 017f 5D       		popq	%rbp
 501              		.cfi_def_cfa 7, 8
 502 0180 C3       		ret
 503              		.cfi_endproc
 504              	.LFE22:
 506              		.globl	setval_248
 508              	setval_248:
 509              	.LFB23:
 118:farm.c        **** 
 119:farm.c        **** void setval_248(unsigned *p)
 120:farm.c        **** {
 510              		.loc 1 120 0
 511              		.cfi_startproc
 512 0181 55       		pushq	%rbp
 513              		.cfi_def_cfa_offset 16
 514              		.cfi_offset 6, -16
 515 0182 4889E5   		movq	%rsp, %rbp
 516              		.cfi_def_cfa_register 6
 517 0185 48897DF8 		movq	%rdi, -8(%rbp)
 121:farm.c        ****     *p = 3674787457U;
 518              		.loc 1 121 0
 519 0189 488B45F8 		movq	-8(%rbp), %rax
 520 018d C70081CE 		movl	$-620179839, (%rax)
 520      08DB
 122:farm.c        **** }
 521              		.loc 1 122 0
 522 0193 90       		nop
 523 0194 5D       		popq	%rbp
 524              		.cfi_def_cfa 7, 8
 525 0195 C3       		ret
 526              		.cfi_endproc
 527              	.LFE23:
 529              		.globl	getval_159
 531              	getval_159:
GAS LISTING /tmp/cclWdqgl.s 			page 12


 532              	.LFB24:
 123:farm.c        **** 
 124:farm.c        **** unsigned getval_159()
 125:farm.c        **** {
 533              		.loc 1 125 0
 534              		.cfi_startproc
 535 0196 55       		pushq	%rbp
 536              		.cfi_def_cfa_offset 16
 537              		.cfi_offset 6, -16
 538 0197 4889E5   		movq	%rsp, %rbp
 539              		.cfi_def_cfa_register 6
 126:farm.c        ****     return 3375944073U;
 540              		.loc 1 126 0
 541 019a B889D138 		movl	$-919023223, %eax
 541      C9
 127:farm.c        **** }
 542              		.loc 1 127 0
 543 019f 5D       		popq	%rbp
 544              		.cfi_def_cfa 7, 8
 545 01a0 C3       		ret
 546              		.cfi_endproc
 547              	.LFE24:
 549              		.globl	addval_110
 551              	addval_110:
 552              	.LFB25:
 128:farm.c        **** 
 129:farm.c        **** unsigned addval_110(unsigned x)
 130:farm.c        **** {
 553              		.loc 1 130 0
 554              		.cfi_startproc
 555 01a1 55       		pushq	%rbp
 556              		.cfi_def_cfa_offset 16
 557              		.cfi_offset 6, -16
 558 01a2 4889E5   		movq	%rsp, %rbp
 559              		.cfi_def_cfa_register 6
 560 01a5 897DFC   		movl	%edi, -4(%rbp)
 131:farm.c        ****     return x + 3286272456U;
 561              		.loc 1 131 0
 562 01a8 8B45FC   		movl	-4(%rbp), %eax
 563 01ab 2D38761F 		subl	$1008694840, %eax
 563      3C
 132:farm.c        **** }
 564              		.loc 1 132 0
 565 01b0 5D       		popq	%rbp
 566              		.cfi_def_cfa 7, 8
 567 01b1 C3       		ret
 568              		.cfi_endproc
 569              	.LFE25:
 571              		.globl	addval_487
 573              	addval_487:
 574              	.LFB26:
 133:farm.c        **** 
 134:farm.c        **** unsigned addval_487(unsigned x)
 135:farm.c        **** {
 575              		.loc 1 135 0
 576              		.cfi_startproc
 577 01b2 55       		pushq	%rbp
GAS LISTING /tmp/cclWdqgl.s 			page 13


 578              		.cfi_def_cfa_offset 16
 579              		.cfi_offset 6, -16
 580 01b3 4889E5   		movq	%rsp, %rbp
 581              		.cfi_def_cfa_register 6
 582 01b6 897DFC   		movl	%edi, -4(%rbp)
 136:farm.c        ****     return x + 3229926025U;
 583              		.loc 1 136 0
 584 01b9 8B45FC   		movl	-4(%rbp), %eax
 585 01bc 2D773D7B 		subl	$1065041271, %eax
 585      3F
 137:farm.c        **** }
 586              		.loc 1 137 0
 587 01c1 5D       		popq	%rbp
 588              		.cfi_def_cfa 7, 8
 589 01c2 C3       		ret
 590              		.cfi_endproc
 591              	.LFE26:
 593              		.globl	addval_201
 595              	addval_201:
 596              	.LFB27:
 138:farm.c        **** 
 139:farm.c        **** unsigned addval_201(unsigned x)
 140:farm.c        **** {
 597              		.loc 1 140 0
 598              		.cfi_startproc
 599 01c3 55       		pushq	%rbp
 600              		.cfi_def_cfa_offset 16
 601              		.cfi_offset 6, -16
 602 01c4 4889E5   		movq	%rsp, %rbp
 603              		.cfi_def_cfa_register 6
 604 01c7 897DFC   		movl	%edi, -4(%rbp)
 141:farm.c        ****     return x + 3353381192U;
 605              		.loc 1 141 0
 606 01ca 8B45FC   		movl	-4(%rbp), %eax
 607 01cd 2DB8761F 		subl	$941586104, %eax
 607      38
 142:farm.c        **** }
 608              		.loc 1 142 0
 609 01d2 5D       		popq	%rbp
 610              		.cfi_def_cfa 7, 8
 611 01d3 C3       		ret
 612              		.cfi_endproc
 613              	.LFE27:
 615              		.globl	getval_272
 617              	getval_272:
 618              	.LFB28:
 143:farm.c        **** 
 144:farm.c        **** unsigned getval_272()
 145:farm.c        **** {
 619              		.loc 1 145 0
 620              		.cfi_startproc
 621 01d4 55       		pushq	%rbp
 622              		.cfi_def_cfa_offset 16
 623              		.cfi_offset 6, -16
 624 01d5 4889E5   		movq	%rsp, %rbp
 625              		.cfi_def_cfa_register 6
 146:farm.c        ****     return 3523793305U;
GAS LISTING /tmp/cclWdqgl.s 			page 14


 626              		.loc 1 146 0
 627 01d8 B899D108 		movl	$-771173991, %eax
 627      D2
 147:farm.c        **** }
 628              		.loc 1 147 0
 629 01dd 5D       		popq	%rbp
 630              		.cfi_def_cfa 7, 8
 631 01de C3       		ret
 632              		.cfi_endproc
 633              	.LFE28:
 635              		.globl	getval_155
 637              	getval_155:
 638              	.LFB29:
 148:farm.c        **** 
 149:farm.c        **** unsigned getval_155()
 150:farm.c        **** {
 639              		.loc 1 150 0
 640              		.cfi_startproc
 641 01df 55       		pushq	%rbp
 642              		.cfi_def_cfa_offset 16
 643              		.cfi_offset 6, -16
 644 01e0 4889E5   		movq	%rsp, %rbp
 645              		.cfi_def_cfa_register 6
 151:farm.c        ****     return 3385115273U;
 646              		.loc 1 151 0
 647 01e3 B889C2C4 		movl	$-909852023, %eax
 647      C9
 152:farm.c        **** }
 648              		.loc 1 152 0
 649 01e8 5D       		popq	%rbp
 650              		.cfi_def_cfa 7, 8
 651 01e9 C3       		ret
 652              		.cfi_endproc
 653              	.LFE29:
 655              		.globl	setval_299
 657              	setval_299:
 658              	.LFB30:
 153:farm.c        **** 
 154:farm.c        **** void setval_299(unsigned *p)
 155:farm.c        **** {
 659              		.loc 1 155 0
 660              		.cfi_startproc
 661 01ea 55       		pushq	%rbp
 662              		.cfi_def_cfa_offset 16
 663              		.cfi_offset 6, -16
 664 01eb 4889E5   		movq	%rsp, %rbp
 665              		.cfi_def_cfa_register 6
 666 01ee 48897DF8 		movq	%rdi, -8(%rbp)
 156:farm.c        ****     *p = 2447411528U;
 667              		.loc 1 156 0
 668 01f2 488B45F8 		movq	-8(%rbp), %rax
 669 01f6 C7004889 		movl	$-1847555768, (%rax)
 669      E091
 157:farm.c        **** }
 670              		.loc 1 157 0
 671 01fc 90       		nop
 672 01fd 5D       		popq	%rbp
GAS LISTING /tmp/cclWdqgl.s 			page 15


 673              		.cfi_def_cfa 7, 8
 674 01fe C3       		ret
 675              		.cfi_endproc
 676              	.LFE30:
 678              		.globl	addval_404
 680              	addval_404:
 681              	.LFB31:
 158:farm.c        **** 
 159:farm.c        **** unsigned addval_404(unsigned x)
 160:farm.c        **** {
 682              		.loc 1 160 0
 683              		.cfi_startproc
 684 01ff 55       		pushq	%rbp
 685              		.cfi_def_cfa_offset 16
 686              		.cfi_offset 6, -16
 687 0200 4889E5   		movq	%rsp, %rbp
 688              		.cfi_def_cfa_register 6
 689 0203 897DFC   		movl	%edi, -4(%rbp)
 161:farm.c        ****     return x + 3281178249U;
 690              		.loc 1 161 0
 691 0206 8B45FC   		movl	-4(%rbp), %eax
 692 0209 2D77316D 		subl	$1013789047, %eax
 692      3C
 162:farm.c        **** }
 693              		.loc 1 162 0
 694 020e 5D       		popq	%rbp
 695              		.cfi_def_cfa 7, 8
 696 020f C3       		ret
 697              		.cfi_endproc
 698              	.LFE31:
 700              		.globl	getval_311
 702              	getval_311:
 703              	.LFB32:
 163:farm.c        **** 
 164:farm.c        **** unsigned getval_311()
 165:farm.c        **** {
 704              		.loc 1 165 0
 705              		.cfi_startproc
 706 0210 55       		pushq	%rbp
 707              		.cfi_def_cfa_offset 16
 708              		.cfi_offset 6, -16
 709 0211 4889E5   		movq	%rsp, %rbp
 710              		.cfi_def_cfa_register 6
 166:farm.c        ****     return 3674788233U;
 711              		.loc 1 166 0
 712 0214 B889D108 		movl	$-620179063, %eax
 712      DB
 167:farm.c        **** }
 713              		.loc 1 167 0
 714 0219 5D       		popq	%rbp
 715              		.cfi_def_cfa 7, 8
 716 021a C3       		ret
 717              		.cfi_endproc
 718              	.LFE32:
 720              		.globl	setval_167
 722              	setval_167:
 723              	.LFB33:
GAS LISTING /tmp/cclWdqgl.s 			page 16


 168:farm.c        **** 
 169:farm.c        **** void setval_167(unsigned *p)
 170:farm.c        **** {
 724              		.loc 1 170 0
 725              		.cfi_startproc
 726 021b 55       		pushq	%rbp
 727              		.cfi_def_cfa_offset 16
 728              		.cfi_offset 6, -16
 729 021c 4889E5   		movq	%rsp, %rbp
 730              		.cfi_def_cfa_register 6
 731 021f 48897DF8 		movq	%rdi, -8(%rbp)
 171:farm.c        ****     *p = 3281113481U;
 732              		.loc 1 171 0
 733 0223 488B45F8 		movq	-8(%rbp), %rax
 734 0227 C70089D1 		movl	$-1013853815, (%rax)
 734      91C3
 172:farm.c        **** }
 735              		.loc 1 172 0
 736 022d 90       		nop
 737 022e 5D       		popq	%rbp
 738              		.cfi_def_cfa 7, 8
 739 022f C3       		ret
 740              		.cfi_endproc
 741              	.LFE33:
 743              		.globl	setval_328
 745              	setval_328:
 746              	.LFB34:
 173:farm.c        **** 
 174:farm.c        **** void setval_328(unsigned *p)
 175:farm.c        **** {
 747              		.loc 1 175 0
 748              		.cfi_startproc
 749 0230 55       		pushq	%rbp
 750              		.cfi_def_cfa_offset 16
 751              		.cfi_offset 6, -16
 752 0231 4889E5   		movq	%rsp, %rbp
 753              		.cfi_def_cfa_register 6
 754 0234 48897DF8 		movq	%rdi, -8(%rbp)
 176:farm.c        ****     *p = 3526935169U;
 755              		.loc 1 176 0
 756 0238 488B45F8 		movq	-8(%rbp), %rax
 757 023c C70081C2 		movl	$-768032127, (%rax)
 757      38D2
 177:farm.c        **** }
 758              		.loc 1 177 0
 759 0242 90       		nop
 760 0243 5D       		popq	%rbp
 761              		.cfi_def_cfa 7, 8
 762 0244 C3       		ret
 763              		.cfi_endproc
 764              	.LFE34:
 766              		.globl	setval_450
 768              	setval_450:
 769              	.LFB35:
 178:farm.c        **** 
 179:farm.c        **** void setval_450(unsigned *p)
 180:farm.c        **** {
GAS LISTING /tmp/cclWdqgl.s 			page 17


 770              		.loc 1 180 0
 771              		.cfi_startproc
 772 0245 55       		pushq	%rbp
 773              		.cfi_def_cfa_offset 16
 774              		.cfi_offset 6, -16
 775 0246 4889E5   		movq	%rsp, %rbp
 776              		.cfi_def_cfa_register 6
 777 0249 48897DF8 		movq	%rdi, -8(%rbp)
 181:farm.c        ****     *p = 3372797449U;
 778              		.loc 1 181 0
 779 024d 488B45F8 		movq	-8(%rbp), %rax
 780 0251 C70009CE 		movl	$-922169847, (%rax)
 780      08C9
 182:farm.c        **** }
 781              		.loc 1 182 0
 782 0257 90       		nop
 783 0258 5D       		popq	%rbp
 784              		.cfi_def_cfa 7, 8
 785 0259 C3       		ret
 786              		.cfi_endproc
 787              	.LFE35:
 789              		.globl	addval_358
 791              	addval_358:
 792              	.LFB36:
 183:farm.c        **** 
 184:farm.c        **** unsigned addval_358(unsigned x)
 185:farm.c        **** {
 793              		.loc 1 185 0
 794              		.cfi_startproc
 795 025a 55       		pushq	%rbp
 796              		.cfi_def_cfa_offset 16
 797              		.cfi_offset 6, -16
 798 025b 4889E5   		movq	%rsp, %rbp
 799              		.cfi_def_cfa_register 6
 800 025e 897DFC   		movl	%edi, -4(%rbp)
 186:farm.c        ****     return x + 2430634248U;
 801              		.loc 1 186 0
 802 0261 8B45FC   		movl	-4(%rbp), %eax
 803 0264 2DF8761F 		subl	$1864333048, %eax
 803      6F
 187:farm.c        **** }
 804              		.loc 1 187 0
 805 0269 5D       		popq	%rbp
 806              		.cfi_def_cfa 7, 8
 807 026a C3       		ret
 808              		.cfi_endproc
 809              	.LFE36:
 811              		.globl	addval_124
 813              	addval_124:
 814              	.LFB37:
 188:farm.c        **** 
 189:farm.c        **** unsigned addval_124(unsigned x)
 190:farm.c        **** {
 815              		.loc 1 190 0
 816              		.cfi_startproc
 817 026b 55       		pushq	%rbp
 818              		.cfi_def_cfa_offset 16
GAS LISTING /tmp/cclWdqgl.s 			page 18


 819              		.cfi_offset 6, -16
 820 026c 4889E5   		movq	%rsp, %rbp
 821              		.cfi_def_cfa_register 6
 822 026f 897DFC   		movl	%edi, -4(%rbp)
 191:farm.c        ****     return x + 1019724425U;
 823              		.loc 1 191 0
 824 0272 8B45FC   		movl	-4(%rbp), %eax
 825 0275 0589C2C7 		addl	$1019724425, %eax
 825      3C
 192:farm.c        **** }
 826              		.loc 1 192 0
 827 027a 5D       		popq	%rbp
 828              		.cfi_def_cfa 7, 8
 829 027b C3       		ret
 830              		.cfi_endproc
 831              	.LFE37:
 833              		.globl	getval_169
 835              	getval_169:
 836              	.LFB38:
 193:farm.c        **** 
 194:farm.c        **** unsigned getval_169()
 195:farm.c        **** {
 837              		.loc 1 195 0
 838              		.cfi_startproc
 839 027c 55       		pushq	%rbp
 840              		.cfi_def_cfa_offset 16
 841              		.cfi_offset 6, -16
 842 027d 4889E5   		movq	%rsp, %rbp
 843              		.cfi_def_cfa_register 6
 196:farm.c        ****     return 3223375496U;
 844              		.loc 1 196 0
 845 0280 B888CE20 		movl	$-1071591800, %eax
 845      C0
 197:farm.c        **** }
 846              		.loc 1 197 0
 847 0285 5D       		popq	%rbp
 848              		.cfi_def_cfa 7, 8
 849 0286 C3       		ret
 850              		.cfi_endproc
 851              	.LFE38:
 853              		.globl	setval_181
 855              	setval_181:
 856              	.LFB39:
 198:farm.c        **** 
 199:farm.c        **** void setval_181(unsigned *p)
 200:farm.c        **** {
 857              		.loc 1 200 0
 858              		.cfi_startproc
 859 0287 55       		pushq	%rbp
 860              		.cfi_def_cfa_offset 16
 861              		.cfi_offset 6, -16
 862 0288 4889E5   		movq	%rsp, %rbp
 863              		.cfi_def_cfa_register 6
 864 028b 48897DF8 		movq	%rdi, -8(%rbp)
 201:farm.c        ****     *p = 3269495112U;
 865              		.loc 1 201 0
 866 028f 488B45F8 		movq	-8(%rbp), %rax
GAS LISTING /tmp/cclWdqgl.s 			page 19


 867 0293 C7004889 		movl	$-1025472184, (%rax)
 867      E0C2
 202:farm.c        **** }
 868              		.loc 1 202 0
 869 0299 90       		nop
 870 029a 5D       		popq	%rbp
 871              		.cfi_def_cfa 7, 8
 872 029b C3       		ret
 873              		.cfi_endproc
 874              	.LFE39:
 876              		.globl	addval_184
 878              	addval_184:
 879              	.LFB40:
 203:farm.c        **** 
 204:farm.c        **** unsigned addval_184(unsigned x)
 205:farm.c        **** {
 880              		.loc 1 205 0
 881              		.cfi_startproc
 882 029c 55       		pushq	%rbp
 883              		.cfi_def_cfa_offset 16
 884              		.cfi_offset 6, -16
 885 029d 4889E5   		movq	%rsp, %rbp
 886              		.cfi_def_cfa_register 6
 887 02a0 897DFC   		movl	%edi, -4(%rbp)
 206:farm.c        ****     return x + 3529556617U;
 888              		.loc 1 206 0
 889 02a3 8B45FC   		movl	-4(%rbp), %eax
 890 02a6 2D773D9F 		subl	$765410679, %eax
 890      2D
 207:farm.c        **** }
 891              		.loc 1 207 0
 892 02ab 5D       		popq	%rbp
 893              		.cfi_def_cfa 7, 8
 894 02ac C3       		ret
 895              		.cfi_endproc
 896              	.LFE40:
 898              		.globl	getval_472
 900              	getval_472:
 901              	.LFB41:
 208:farm.c        **** 
 209:farm.c        **** unsigned getval_472()
 210:farm.c        **** {
 902              		.loc 1 210 0
 903              		.cfi_startproc
 904 02ad 55       		pushq	%rbp
 905              		.cfi_def_cfa_offset 16
 906              		.cfi_offset 6, -16
 907 02ae 4889E5   		movq	%rsp, %rbp
 908              		.cfi_def_cfa_register 6
 211:farm.c        ****     return 3525365389U;
 909              		.loc 1 211 0
 910 02b1 B88DCE20 		movl	$-769601907, %eax
 910      D2
 212:farm.c        **** }
 911              		.loc 1 212 0
 912 02b6 5D       		popq	%rbp
 913              		.cfi_def_cfa 7, 8
GAS LISTING /tmp/cclWdqgl.s 			page 20


 914 02b7 C3       		ret
 915              		.cfi_endproc
 916              	.LFE41:
 918              		.globl	setval_350
 920              	setval_350:
 921              	.LFB42:
 213:farm.c        **** 
 214:farm.c        **** void setval_350(unsigned *p)
 215:farm.c        **** {
 922              		.loc 1 215 0
 923              		.cfi_startproc
 924 02b8 55       		pushq	%rbp
 925              		.cfi_def_cfa_offset 16
 926              		.cfi_offset 6, -16
 927 02b9 4889E5   		movq	%rsp, %rbp
 928              		.cfi_def_cfa_register 6
 929 02bc 48897DF8 		movq	%rdi, -8(%rbp)
 216:farm.c        ****     *p = 2430634312U;
 930              		.loc 1 216 0
 931 02c0 488B45F8 		movq	-8(%rbp), %rax
 932 02c4 C7004889 		movl	$-1864332984, (%rax)
 932      E090
 217:farm.c        **** }
 933              		.loc 1 217 0
 934 02ca 90       		nop
 935 02cb 5D       		popq	%rbp
 936              		.cfi_def_cfa 7, 8
 937 02cc C3       		ret
 938              		.cfi_endproc
 939              	.LFE42:
 941              		.globl	end_farm
 943              	end_farm:
 944              	.LFB43:
 218:farm.c        **** 
 219:farm.c        **** /* This function marks the end of the farm */
 220:farm.c        **** int end_farm()
 221:farm.c        **** {
 945              		.loc 1 221 0
 946              		.cfi_startproc
 947 02cd 55       		pushq	%rbp
 948              		.cfi_def_cfa_offset 16
 949              		.cfi_offset 6, -16
 950 02ce 4889E5   		movq	%rsp, %rbp
 951              		.cfi_def_cfa_register 6
 222:farm.c        ****     return 1;
 952              		.loc 1 222 0
 953 02d1 B8010000 		movl	$1, %eax
 953      00
 223:farm.c        **** }
 954              		.loc 1 223 0
 955 02d6 5D       		popq	%rbp
 956              		.cfi_def_cfa 7, 8
 957 02d7 C3       		ret
 958              		.cfi_endproc
 959              	.LFE43:
 961              	.Letext0:
GAS LISTING /tmp/cclWdqgl.s 			page 21


DEFINED SYMBOLS
                            *ABS*:0000000000000000 farm.c
     /tmp/cclWdqgl.s:6      .text:0000000000000000 start_farm
     /tmp/cclWdqgl.s:27     .text:000000000000000b getval_142
     /tmp/cclWdqgl.s:47     .text:0000000000000016 addval_273
     /tmp/cclWdqgl.s:69     .text:0000000000000027 addval_219
     /tmp/cclWdqgl.s:91     .text:0000000000000038 setval_237
     /tmp/cclWdqgl.s:114    .text:000000000000004d setval_424
     /tmp/cclWdqgl.s:137    .text:0000000000000062 setval_470
     /tmp/cclWdqgl.s:160    .text:0000000000000077 setval_426
     /tmp/cclWdqgl.s:183    .text:000000000000008c getval_280
     /tmp/cclWdqgl.s:203    .text:0000000000000097 mid_farm
     /tmp/cclWdqgl.s:223    .text:00000000000000a2 add_xy
     /tmp/cclWdqgl.s:247    .text:00000000000000bb getval_481
     /tmp/cclWdqgl.s:267    .text:00000000000000c6 setval_296
     /tmp/cclWdqgl.s:290    .text:00000000000000db addval_113
     /tmp/cclWdqgl.s:312    .text:00000000000000ec addval_490
     /tmp/cclWdqgl.s:334    .text:00000000000000fd getval_226
     /tmp/cclWdqgl.s:354    .text:0000000000000108 setval_384
     /tmp/cclWdqgl.s:377    .text:000000000000011d addval_190
     /tmp/cclWdqgl.s:399    .text:000000000000012e setval_276
     /tmp/cclWdqgl.s:422    .text:0000000000000143 addval_436
     /tmp/cclWdqgl.s:444    .text:0000000000000154 getval_345
     /tmp/cclWdqgl.s:464    .text:000000000000015f addval_479
     /tmp/cclWdqgl.s:486    .text:0000000000000170 addval_187
     /tmp/cclWdqgl.s:508    .text:0000000000000181 setval_248
     /tmp/cclWdqgl.s:531    .text:0000000000000196 getval_159
     /tmp/cclWdqgl.s:551    .text:00000000000001a1 addval_110
     /tmp/cclWdqgl.s:573    .text:00000000000001b2 addval_487
     /tmp/cclWdqgl.s:595    .text:00000000000001c3 addval_201
     /tmp/cclWdqgl.s:617    .text:00000000000001d4 getval_272
     /tmp/cclWdqgl.s:637    .text:00000000000001df getval_155
     /tmp/cclWdqgl.s:657    .text:00000000000001ea setval_299
     /tmp/cclWdqgl.s:680    .text:00000000000001ff addval_404
     /tmp/cclWdqgl.s:702    .text:0000000000000210 getval_311
     /tmp/cclWdqgl.s:722    .text:000000000000021b setval_167
     /tmp/cclWdqgl.s:745    .text:0000000000000230 setval_328
     /tmp/cclWdqgl.s:768    .text:0000000000000245 setval_450
     /tmp/cclWdqgl.s:791    .text:000000000000025a addval_358
     /tmp/cclWdqgl.s:813    .text:000000000000026b addval_124
     /tmp/cclWdqgl.s:835    .text:000000000000027c getval_169
     /tmp/cclWdqgl.s:855    .text:0000000000000287 setval_181
     /tmp/cclWdqgl.s:878    .text:000000000000029c addval_184
     /tmp/cclWdqgl.s:900    .text:00000000000002ad getval_472
     /tmp/cclWdqgl.s:920    .text:00000000000002b8 setval_350
     /tmp/cclWdqgl.s:943    .text:00000000000002cd end_farm

NO UNDEFINED SYMBOLS
